target datalayout = "e-m:e-p270:32:32-p271:32:32-p272:64:64-i64:64-i128:128-f80:128-n8:16:32:64-S128"
target triple = "x86_64-pc-linux-gnu"

%struct.mbedtls_mpi = type { i32, i64, ptr }

; Function Attrs: mustprogress uwtable
define internal void @_ZL19mbedtls_mpi_zeroizePmm(ptr noundef %0, i64 noundef %1) #1 {
  %3 = alloca ptr, align 8
  %4 = alloca i64, align 8
  store ptr %0, ptr %3, align 8, !tbaa !15
  store i64 %1, ptr %4, align 8, !tbaa !16
  %5 = load ptr, ptr %3, align 8, !tbaa !15
  %6 = load i64, ptr %4, align 8, !tbaa !16
  %7 = mul i64 8, %6
  call void @mbedtls_platform_zeroize(ptr noundef %5, i64 noundef %7)
  ret void
}

; Function Attrs: mustprogress uwtable
define hidden i32 @mbedtls_mpi_grow(ptr noundef %0, i64 noundef %1) #1 {
  %3 = alloca i32, align 4
  %4 = alloca ptr, align 8
  %5 = alloca i64, align 8
  %6 = alloca ptr, align 8
  %7 = alloca i32, align 4
  store ptr %0, ptr %4, align 8, !tbaa !3
  store i64 %1, ptr %5, align 8, !tbaa !16
  call void @llvm.lifetime.start.p0(i64 8, ptr %6) #10
  br label %8

8:                                                ; preds = %2
  br label %9

9:                                                ; preds = %8
  br label %10

10:                                               ; preds = %9
  %11 = load i64, ptr %5, align 8, !tbaa !16
  %12 = icmp ugt i64 %11, 10000
  br i1 %12, label %13, label %14

13:                                               ; preds = %10
  store i32 -16, ptr %3, align 4
  store i32 1, ptr %7, align 4
  br label %56

14:                                               ; preds = %10
  %15 = load ptr, ptr %4, align 8, !tbaa !3
  %16 = getelementptr inbounds nuw %struct.mbedtls_mpi, ptr %15, i32 0, i32 1
  %17 = load i64, ptr %16, align 8, !tbaa !13
  %18 = load i64, ptr %5, align 8, !tbaa !16
  %19 = icmp ult i64 %17, %18
  br i1 %19, label %20, label %55

20:                                               ; preds = %14
  %21 = load i64, ptr %5, align 8, !tbaa !16
  %22 = call noalias ptr @calloc(i64 noundef %21, i64 noundef 8) #11
  store ptr %22, ptr %6, align 8, !tbaa !15
  %23 = icmp eq ptr %22, null
  br i1 %23, label %24, label %25

24:                                               ; preds = %20
  store i32 -16, ptr %3, align 4
  store i32 1, ptr %7, align 4
  br label %56

25:                                               ; preds = %20
  %26 = load ptr, ptr %4, align 8, !tbaa !3
  %27 = getelementptr inbounds nuw %struct.mbedtls_mpi, ptr %26, i32 0, i32 2
  %28 = load ptr, ptr %27, align 8, !tbaa !14
  %29 = icmp ne ptr %28, null
  br i1 %29, label %30, label %48

30:                                               ; preds = %25
  %31 = load ptr, ptr %6, align 8, !tbaa !15
  %32 = load ptr, ptr %4, align 8, !tbaa !3
  %33 = getelementptr inbounds nuw %struct.mbedtls_mpi, ptr %32, i32 0, i32 2
  %34 = load ptr, ptr %33, align 8, !tbaa !14
  %35 = load ptr, ptr %4, align 8, !tbaa !3
  %36 = getelementptr inbounds nuw %struct.mbedtls_mpi, ptr %35, i32 0, i32 1
  %37 = load i64, ptr %36, align 8, !tbaa !13
  %38 = mul i64 %37, 8
  call void @llvm.memcpy.p0.p0.i64(ptr align 8 %31, ptr align 8 %34, i64 %38, i1 false)
  %39 = load ptr, ptr %4, align 8, !tbaa !3
  %40 = getelementptr inbounds nuw %struct.mbedtls_mpi, ptr %39, i32 0, i32 2
  %41 = load ptr, ptr %40, align 8, !tbaa !14
  %42 = load ptr, ptr %4, align 8, !tbaa !3
  %43 = getelementptr inbounds nuw %struct.mbedtls_mpi, ptr %42, i32 0, i32 1
  %44 = load i64, ptr %43, align 8, !tbaa !13
  call void @_ZL19mbedtls_mpi_zeroizePmm(ptr noundef %41, i64 noundef %44)
  %45 = load ptr, ptr %4, align 8, !tbaa !3
  %46 = getelementptr inbounds nuw %struct.mbedtls_mpi, ptr %45, i32 0, i32 2
  %47 = load ptr, ptr %46, align 8, !tbaa !14
  call void @free(ptr noundef %47) #10
  br label %48

48:                                               ; preds = %30, %25
  %49 = load i64, ptr %5, align 8, !tbaa !16
  %50 = load ptr, ptr %4, align 8, !tbaa !3
  %51 = getelementptr inbounds nuw %struct.mbedtls_mpi, ptr %50, i32 0, i32 1
  store i64 %49, ptr %51, align 8, !tbaa !13
  %52 = load ptr, ptr %6, align 8, !tbaa !15
  %53 = load ptr, ptr %4, align 8, !tbaa !3
  %54 = getelementptr inbounds nuw %struct.mbedtls_mpi, ptr %53, i32 0, i32 2
  store ptr %52, ptr %54, align 8, !tbaa !14
  br label %55

55:                                               ; preds = %48, %14
  store i32 0, ptr %3, align 4
  store i32 1, ptr %7, align 4
  br label %56

56:                                               ; preds = %55, %24, %13
  call void @llvm.lifetime.end.p0(i64 8, ptr %6) #10
  %57 = load i32, ptr %3, align 4
  ret i32 %57
}

; Function Attrs: mustprogress uwtable
define hidden void @mbedtls_mpi_free(ptr noundef %0) #1 {
  %2 = alloca ptr, align 8
  store ptr %0, ptr %2, align 8, !tbaa !3
  %3 = load ptr, ptr %2, align 8, !tbaa !3
  %4 = icmp eq ptr %3, null
  br i1 %4, label %5, label %6

5:                                                ; preds = %1
  br label %28

6:                                                ; preds = %1
  %7 = load ptr, ptr %2, align 8, !tbaa !3
  %8 = getelementptr inbounds nuw %struct.mbedtls_mpi, ptr %7, i32 0, i32 2
  %9 = load ptr, ptr %8, align 8, !tbaa !14
  %10 = icmp ne ptr %9, null
  br i1 %10, label %11, label %21

11:                                               ; preds = %6
  %12 = load ptr, ptr %2, align 8, !tbaa !3
  %13 = getelementptr inbounds nuw %struct.mbedtls_mpi, ptr %12, i32 0, i32 2
  %14 = load ptr, ptr %13, align 8, !tbaa !14
  %15 = load ptr, ptr %2, align 8, !tbaa !3
  %16 = getelementptr inbounds nuw %struct.mbedtls_mpi, ptr %15, i32 0, i32 1
  %17 = load i64, ptr %16, align 8, !tbaa !13
  call void @_ZL19mbedtls_mpi_zeroizePmm(ptr noundef %14, i64 noundef %17)
  %18 = load ptr, ptr %2, align 8, !tbaa !3
  %19 = getelementptr inbounds nuw %struct.mbedtls_mpi, ptr %18, i32 0, i32 2
  %20 = load ptr, ptr %19, align 8, !tbaa !14
  call void @free(ptr noundef %20) #10
  br label %21

21:                                               ; preds = %11, %6
  %22 = load ptr, ptr %2, align 8, !tbaa !3
  %23 = getelementptr inbounds nuw %struct.mbedtls_mpi, ptr %22, i32 0, i32 0
  store i32 1, ptr %23, align 8, !tbaa !8
  %24 = load ptr, ptr %2, align 8, !tbaa !3
  %25 = getelementptr inbounds nuw %struct.mbedtls_mpi, ptr %24, i32 0, i32 1
  store i64 0, ptr %25, align 8, !tbaa !13
  %26 = load ptr, ptr %2, align 8, !tbaa !3
  %27 = getelementptr inbounds nuw %struct.mbedtls_mpi, ptr %26, i32 0, i32 2
  store ptr null, ptr %27, align 8, !tbaa !14
  br label %28

28:                                               ; preds = %21, %5
  ret void
}

; Function Attrs: mustprogress uwtable
define internal noundef i32 @_ZL24mbedtls_mpi_resize_clearP11mbedtls_mpim(ptr noundef %0, i64 noundef %1) #1 {
  %3 = alloca i32, align 4
  %4 = alloca ptr, align 8
  %5 = alloca i64, align 8
  store ptr %0, ptr %4, align 8, !tbaa !3
  store i64 %1, ptr %5, align 8, !tbaa !16
  %6 = load i64, ptr %5, align 8, !tbaa !16
  %7 = icmp eq i64 %6, 0
  br i1 %7, label %8, label %10

8:                                                ; preds = %2
  %9 = load ptr, ptr %4, align 8, !tbaa !3
  call void @mbedtls_mpi_free(ptr noundef %9)
  store i32 0, ptr %3, align 4
  br label %29

10:                                               ; preds = %2
  %11 = load ptr, ptr %4, align 8, !tbaa !3
  %12 = getelementptr inbounds nuw %struct.mbedtls_mpi, ptr %11, i32 0, i32 1
  %13 = load i64, ptr %12, align 8, !tbaa !13
  %14 = load i64, ptr %5, align 8, !tbaa !16
  %15 = icmp eq i64 %13, %14
  br i1 %15, label %16, label %24

16:                                               ; preds = %10
  %17 = load ptr, ptr %4, align 8, !tbaa !3
  %18 = getelementptr inbounds nuw %struct.mbedtls_mpi, ptr %17, i32 0, i32 2
  %19 = load ptr, ptr %18, align 8, !tbaa !14
  %20 = load i64, ptr %5, align 8, !tbaa !16
  %21 = mul i64 %20, 8
  call void @llvm.memset.p0.i64(ptr align 8 %19, i8 0, i64 %21, i1 false)
  %22 = load ptr, ptr %4, align 8, !tbaa !3
  %23 = getelementptr inbounds nuw %struct.mbedtls_mpi, ptr %22, i32 0, i32 0
  store i32 1, ptr %23, align 8, !tbaa !8
  store i32 0, ptr %3, align 4
  br label %29

24:                                               ; preds = %10
  %25 = load ptr, ptr %4, align 8, !tbaa !3
  call void @mbedtls_mpi_free(ptr noundef %25)
  %26 = load ptr, ptr %4, align 8, !tbaa !3
  %27 = load i64, ptr %5, align 8, !tbaa !16
  %28 = call i32 @mbedtls_mpi_grow(ptr noundef %26, i64 noundef %27)
  store i32 %28, ptr %3, align 4
  br label %29

29:                                               ; preds = %24, %16, %8
  %30 = load i32, ptr %3, align 4
  ret i32 %30
}