; Function Attrs: mustprogress uwtable
define internal fastcc noundef range(i32 -16, 1) i32 @_ZL24mbedtls_mpi_resize_clearP11mbedtls_mpim(ptr noundef captures(address_is_null) %0, i64 noundef %1) unnamed_addr #1 {
  %3 = icmp eq i64 %1, 0
  br i1 %3, label %4, label %16

4:                                                ; preds = %2
  %5 = icmp eq ptr %0, null
  br i1 %5, label %mbedtls_mpi_free.exit, label %6

6:                                                ; preds = %4
  %7 = getelementptr inbounds nuw i8, ptr %0, i64 16
  %8 = load ptr, ptr %7, align 8, !tbaa !11
  %.not.i = icmp eq ptr %8, null
  br i1 %.not.i, label %14, label %9

9:                                                ; preds = %6
  %10 = getelementptr inbounds nuw i8, ptr %0, i64 8
  %11 = load i64, ptr %10, align 8, !tbaa !12
  %12 = shl i64 %11, 3
  tail call void @mbedtls_platform_zeroize(ptr noundef nonnull %8, i64 noundef %12)
  %13 = load ptr, ptr %7, align 8, !tbaa !11
  tail call void @free(ptr noundef %13) #15
  br label %14

14:                                               ; preds = %9, %6
  store i32 1, ptr %0, align 8, !tbaa !3
  %15 = getelementptr inbounds nuw i8, ptr %0, i64 8
  tail call void @llvm.memset.p0.i64(ptr noundef nonnull align 8 dereferenceable(16) %15, i8 0, i64 16, i1 false)
  br label %mbedtls_mpi_free.exit

16:                                               ; preds = %2
  %17 = getelementptr inbounds nuw i8, ptr %0, i64 8
  %18 = load i64, ptr %17, align 8, !tbaa !12
  %19 = icmp eq i64 %18, %1
  %20 = getelementptr inbounds nuw i8, ptr %0, i64 16
  %21 = load ptr, ptr %20, align 8, !tbaa !11
  br i1 %19, label %22, label %24

22:                                               ; preds = %16
  %23 = shl i64 %1, 3
  tail call void @llvm.memset.p0.i64(ptr align 8 %21, i8 0, i64 %23, i1 false)
  store i32 1, ptr %0, align 8, !tbaa !3
  br label %mbedtls_mpi_free.exit

24:                                               ; preds = %16
  %.not.i11 = icmp eq ptr %21, null
  br i1 %.not.i11, label %mbedtls_mpi_free.exit12, label %25

25:                                               ; preds = %24
  %26 = shl i64 %18, 3
  tail call void @mbedtls_platform_zeroize(ptr noundef nonnull %21, i64 noundef %26)
  %27 = load ptr, ptr %20, align 8, !tbaa !11
  tail call void @free(ptr noundef %27) #15
  br label %mbedtls_mpi_free.exit12

mbedtls_mpi_free.exit12:                          ; preds = %24, %25
  store i32 1, ptr %0, align 8, !tbaa !3
  tail call void @llvm.memset.p0.i64(ptr noundef nonnull align 8 dereferenceable(16) %17, i8 0, i64 16, i1 false)
  %28 = icmp ugt i64 %1, 10000
  br i1 %28, label %mbedtls_mpi_free.exit, label %29

29:                                               ; preds = %mbedtls_mpi_free.exit12
  %30 = tail call noalias ptr @calloc(i64 noundef %1, i64 noundef 8) #16
  %31 = icmp eq ptr %30, null
  br i1 %31, label %mbedtls_mpi_free.exit, label %32

32:                                               ; preds = %29
  store i64 %1, ptr %17, align 8, !tbaa !12
  store ptr %30, ptr %20, align 8, !tbaa !11
  br label %mbedtls_mpi_free.exit

mbedtls_mpi_free.exit:                            ; preds = %32, %29, %mbedtls_mpi_free.exit12, %14, %4, %22
  %.0 = phi i32 [ 0, %22 ], [ 0, %4 ], [ 0, %14 ], [ -16, %mbedtls_mpi_free.exit12 ], [ -16, %29 ], [ 0, %32 ]
  ret i32 %.0
}